target datalayout = "e-m:e-p270:32:32-p271:32:32-p272:64:64-i64:64-i128:128-f80:128-n8:16:32:64-S128"
target triple = "x86_64-pc-linux-gnu"

%"class.clang::Scope" = type { ptr, i32, i16, i16, i16, i16, i16, ptr, ptr, ptr, ptr, ptr, ptr, ptr, %"class.llvm::SmallPtrSet", ptr, %"class.llvm::SmallVector", %"class.clang::DiagnosticErrorTrap", %"class.std::optional", %"class.llvm::SmallPtrSet.0" }
%"class.llvm::SmallPtrSet" = type { %"class.llvm::SmallPtrSetImpl.base", [32 x ptr] }
%"class.llvm::SmallPtrSetImpl.base" = type { %"class.llvm::SmallPtrSetImplBase.base" }
%"class.llvm::SmallPtrSetImplBase.base" = type <{ ptr, ptr, i32, i32, i32 }>
%"class.llvm::SmallVector" = type { %"class.llvm::SmallVectorImpl", %"struct.llvm::SmallVectorStorage" }
%"class.llvm::SmallVectorImpl" = type { %"class.llvm::SmallVectorTemplateBase" }
%"class.llvm::SmallVectorTemplateBase" = type { %"class.llvm::SmallVectorTemplateCommon" }
%"class.llvm::SmallVectorTemplateCommon" = type { %"class.llvm::SmallVectorBase" }
%"class.llvm::SmallVectorBase" = type { ptr, i32, i32 }
%"struct.llvm::SmallVectorStorage" = type { [16 x i8] }
%"class.clang::DiagnosticErrorTrap" = type { ptr, i32, i32 }
%"class.std::optional" = type { %"struct.std::_Optional_base" }
%"struct.std::_Optional_base" = type { %"struct.std::_Optional_payload" }
%"struct.std::_Optional_payload" = type { %"struct.std::_Optional_payload_base.base", [7 x i8] }
%"struct.std::_Optional_payload_base.base" = type <{ %"union.std::_Optional_payload_base<clang::VarDecl *>::_Storage", i8 }>
%"union.std::_Optional_payload_base<clang::VarDecl *>::_Storage" = type { ptr }
%"class.llvm::SmallPtrSet.0" = type { %"class.llvm::SmallPtrSetImpl.base.2", [8 x ptr] }
%"class.llvm::SmallPtrSetImpl.base.2" = type { %"class.llvm::SmallPtrSetImplBase.base" }

; Function Attrs: mustprogress nounwind uwtable
define linkonce_odr hidden noundef i32 @_ZNK5clang5Scope8getFlagsEv(ptr noundef nonnull align 8 dereferenceable(536) %0) #0 comdat align 2 {
  %2 = alloca ptr, align 8
  store ptr %0, ptr %2, align 8
  %3 = load ptr, ptr %2, align 8
  %4 = getelementptr inbounds nuw %"class.clang::Scope", ptr %3, i32 0, i32 1
  %5 = load i32, ptr %4, align 8
  ret i32 %5
}

; Function Attrs: mustprogress nounwind uwtable
define linkonce_odr hidden noundef ptr @_ZNK5clang5Scope9getParentEv(ptr noundef nonnull align 8 dereferenceable(536) %0) #0 comdat align 2 {
  %2 = alloca ptr, align 8
  store ptr %0, ptr %2, align 8
  %3 = load ptr, ptr %2, align 8
  %4 = getelementptr inbounds nuw %"class.clang::Scope", ptr %3, i32 0, i32 0
  %5 = load ptr, ptr %4, align 8
  ret ptr %5
}

; Function Attrs: mustprogress nounwind uwtable
define linkonce_odr hidden noundef zeroext i1 @_ZNK5clang5Scope24isFunctionPrototypeScopeEv(ptr noundef nonnull align 8 dereferenceable(536) %0) #0 comdat align 2 {
  %2 = alloca ptr, align 8
  store ptr %0, ptr %2, align 8
  %3 = load ptr, ptr %2, align 8
  %4 = call noundef i32 @_ZNK5clang5Scope8getFlagsEv(ptr noundef nonnull align 8 dereferenceable(536) %3)
  %5 = and i32 %4, 256
  %6 = icmp ne i32 %5, 0
  ret i1 %6
}

; Function Attrs: mustprogress nounwind uwtable
define dso_local noundef zeroext i1 @_ZNK5clang5Scope25containedInPrototypeScopeEv(ptr noundef nonnull align 8 dereferenceable(536) %0) #0 align 2 {
  %2 = alloca i1, align 1
  %3 = alloca ptr, align 8
  %4 = alloca ptr, align 8
  store ptr %0, ptr %3, align 8
  %5 = load ptr, ptr %3, align 8
  store ptr %5, ptr %4, align 8
  br label %6

6:                                                ; preds = %13, %1
  %7 = load ptr, ptr %4, align 8
  %8 = icmp ne ptr %7, null
  br i1 %8, label %9, label %16

9:                                                ; preds = %6
  %10 = load ptr, ptr %4, align 8
  %11 = call noundef zeroext i1 @_ZNK5clang5Scope24isFunctionPrototypeScopeEv(ptr noundef nonnull align 8 dereferenceable(536) %10)
  br i1 %11, label %12, label %13

12:                                               ; preds = %9
  store i1 true, ptr %2, align 1
  br label %17

13:                                               ; preds = %9
  %14 = load ptr, ptr %4, align 8
  %15 = call noundef ptr @_ZNK5clang5Scope9getParentEv(ptr noundef nonnull align 8 dereferenceable(536) %14)
  store ptr %15, ptr %4, align 8
  br label %6, !llvm.loop !4

16:                                               ; preds = %6
  store i1 false, ptr %2, align 1
  br label %17

17:                                               ; preds = %16, %12
  %18 = load i1, ptr %2, align 1
  ret i1 %18
}