; Function Attrs: mustprogress nofree norecurse nosync nounwind willreturn memory(read, inaccessiblemem: none) uwtable
define dso_local noundef zeroext i1 @_ZNK5clang5Scope25containedInPrototypeScopeEv(ptr noundef nonnull readonly align 8 captures(none) dereferenceable(536) %0) local_unnamed_addr #2 align 2 {
  br label %2

2:                                                ; preds = %1, %6
  %.07 = phi ptr [ %0, %1 ], [ %7, %6 ]
  %3 = getelementptr inbounds nuw i8, ptr %.07, i64 8
  %4 = load i32, ptr %3, align 8
  %5 = and i32 %4, 256
  %.not6.not.not.not.not = icmp ne i32 %5, 0
  br i1 %.not6.not.not.not.not, label %8, label %6

6:                                                ; preds = %2
  %7 = load ptr, ptr %.07, align 8
  %.not.not = icmp eq ptr %7, null
  br i1 %.not.not, label %8, label %2, !llvm.loop !4

8:                                                ; preds = %6, %2
  ret i1 %.not6.not.not.not.not
}